; Function Attrs: mustprogress uwtable
define void @_ZN10PacketList12setProtoTreeEP9ProtoTree(ptr noundef nonnull align 8 dereferenceable(464) %0, ptr noundef %1) local_unnamed_addr #0 align 2 {
  %3 = alloca %"class.QMetaObject::Connection", align 8
  %4 = alloca %"class.QMetaObject::Connection", align 8
  %5 = getelementptr inbounds i8, ptr %0, i64 56
  store ptr %1, ptr %5, align 8
  call void @_ZN7QObject7connectEPKS_PKcS1_S3_N2Qt14ConnectionTypeE(ptr dead_on_unwind nonnull writable sret(%"class.QMetaObject::Connection") align 8 %3, ptr noundef %1, ptr noundef nonnull @.str.2, ptr noundef nonnull %0, ptr noundef nonnull @.str.3, i32 noundef 0)
  call void @_ZN11QMetaObject10ConnectionD1Ev(ptr noundef nonnull align 8 dereferenceable(8) %3) #20
  %6 = load ptr, ptr %5, align 8
  %7 = getelementptr inbounds i8, ptr %0, i64 296
  call void @_ZN7QObject7connectEPKS_PKcS1_S3_N2Qt14ConnectionTypeE(ptr dead_on_unwind nonnull writable sret(%"class.QMetaObject::Connection") align 8 %4, ptr noundef %6, ptr noundef nonnull @.str.28, ptr noundef nonnull %7, ptr noundef nonnull @.str.29, i32 noundef 0)
  call void @_ZN11QMetaObject10ConnectionD1Ev(ptr noundef nonnull align 8 dereferenceable(8) %4) #20
  ret void
}